target datalayout = "e-m:e-p270:32:32-p271:32:32-p272:64:64-i64:64-i128:128-f80:128-n8:16:32:64-S128"
target triple = "x86_64-unknown-linux-gnu"

%"class.google::protobuf::compiler::java::ImmutableGeneratorFactory" = type { %"class.google::protobuf::compiler::java::GeneratorFactory", ptr }
%"class.google::protobuf::compiler::java::GeneratorFactory" = type { ptr }

; Function Attrs: mustprogress uwtable
define hidden noundef ptr @_ZNK6google8protobuf8compiler4java25ImmutableGeneratorFactory19NewServiceGeneratorEPKNS0_17ServiceDescriptorE(ptr noundef nonnull align 8 dereferenceable(16) %this, ptr noundef %descriptor) unnamed_addr #7 align 2 personality ptr @__gxx_personality_v0 {
entry:
  %this.addr = alloca ptr, align 8
  %descriptor.addr = alloca ptr, align 8
  %exn.slot = alloca ptr, align 8
  %ehselector.slot = alloca i32, align 4
  store ptr %this, ptr %this.addr, align 8
  store ptr %descriptor, ptr %descriptor.addr, align 8
  %this1 = load ptr, ptr %this.addr, align 8
  %call = call noalias noundef nonnull ptr @_Znwm(i64 noundef 32) #11
  %0 = load ptr, ptr %descriptor.addr, align 8
  %context_ = getelementptr inbounds %"class.google::protobuf::compiler::java::ImmutableGeneratorFactory", ptr %this1, i32 0, i32 1
  %1 = load ptr, ptr %context_, align 8
  invoke void @_ZN6google8protobuf8compiler4java25ImmutableServiceGeneratorC1EPKNS0_17ServiceDescriptorEPNS2_7ContextE(ptr noundef nonnull align 8 dereferenceable(32) %call, ptr noundef %0, ptr noundef %1)
          to label %invoke.cont unwind label %lpad

invoke.cont:                                      ; preds = %entry
  ret ptr %call

lpad:                                             ; preds = %entry
  %2 = landingpad { ptr, i32 }
          cleanup
  %3 = extractvalue { ptr, i32 } %2, 0
  store ptr %3, ptr %exn.slot, align 8
  %4 = extractvalue { ptr, i32 } %2, 1
  store i32 %4, ptr %ehselector.slot, align 4
  call void @_ZdlPv(ptr noundef %call) #10
  br label %eh.resume

eh.resume:                                        ; preds = %lpad
  %exn = load ptr, ptr %exn.slot, align 8
  %sel = load i32, ptr %ehselector.slot, align 4
  %lpad.val = insertvalue { ptr, i32 } poison, ptr %exn, 0
  %lpad.val2 = insertvalue { ptr, i32 } %lpad.val, i32 %sel, 1
  resume { ptr, i32 } %lpad.val2
}