; Function Attrs: mustprogress uwtable
define hidden noundef nonnull ptr @_ZNK6google8protobuf8compiler4java25ImmutableGeneratorFactory19NewServiceGeneratorEPKNS0_17ServiceDescriptorE(ptr nocapture noundef nonnull readonly align 8 dereferenceable(16) %this, ptr noundef %descriptor) unnamed_addr #9 align 2 personality ptr @__gxx_personality_v0 {
entry:
  %call = tail call noalias noundef nonnull dereferenceable(32) ptr @_Znwm(i64 noundef 32) #14
  %context_ = getelementptr inbounds i8, ptr %this, i64 8
  %0 = load ptr, ptr %context_, align 8
  invoke void @_ZN6google8protobuf8compiler4java25ImmutableServiceGeneratorC1EPKNS0_17ServiceDescriptorEPNS2_7ContextE(ptr noundef nonnull align 8 dereferenceable(32) %call, ptr noundef %descriptor, ptr noundef %0)
          to label %invoke.cont unwind label %lpad

invoke.cont:                                      ; preds = %entry
  ret ptr %call

lpad:                                             ; preds = %entry
  %1 = landingpad { ptr, i32 }
          cleanup
  tail call void @_ZdlPv(ptr noundef nonnull %call) #13
  resume { ptr, i32 } %1
}